target datalayout = "e-m:e-p270:32:32-p271:32:32-p272:64:64-i64:64-i128:128-f80:128-n8:16:32:64-S128"
target triple = "x86_64-pc-linux-gnu"

%struct.strbuf = type { i64, i64, ptr }
%struct.repository = type { ptr, ptr, ptr, ptr, ptr, %struct.strmap, %struct.strmap, %struct.repo_path_cache, ptr, ptr, ptr, ptr, %struct.repo_settings, ptr, ptr, ptr, ptr, ptr, ptr, i32, i32, i32, ptr, ptr, i32, i32, i8 }
%struct.strmap = type { %struct.hashmap, ptr, i8 }
%struct.hashmap = type { ptr, ptr, ptr, i32, i32, i32, i32, i8 }
%struct.repo_path_cache = type { ptr, ptr, ptr, ptr, ptr, ptr, ptr }
%struct.repo_settings = type { i32, i32, i32, i32, i32, i32, i32, i32, i32, i32, i32, i32, ptr, i32, i32, i32, i32, i32, i32, i32, i64, i64, i64 }
%struct.stat = type { i64, i64, i64, i32, i32, i32, i32, i64, i64, i64, i64, %struct.timespec, %struct.timespec, %struct.timespec, [3 x i64] }
%struct.timespec = type { i64, i64 }
%struct.object_id = type { [32 x i8], i32 }

@the_repository = external global ptr, align 8
@.str.22 = private unnamed_addr constant [29 x i8] c"Unable to add %s to database\00", align 1
@.str.23 = private unnamed_addr constant [18 x i8] c"Unable to hash %s\00", align 1
@.str.24 = private unnamed_addr constant [4 x i8] c"%s\0A\00", align 1
@stdout = external global ptr, align 8
@.str.25 = private unnamed_addr constant [15 x i8] c"hash to stdout\00", align 1
@__const.hash_literally.buf = private unnamed_addr constant %struct.strbuf { i64 0, i64 0, ptr @strbuf_slopbuf }, align 8

; Function Attrs: nounwind uwtable
define internal i32 @hash_literally(ptr noundef %0, i32 noundef %1, ptr noundef %2, i32 noundef %3) #0 {
  %5 = alloca ptr, align 8
  %6 = alloca i32, align 4
  %7 = alloca ptr, align 8
  %8 = alloca i32, align 4
  %9 = alloca %struct.strbuf, align 8
  %10 = alloca i32, align 4
  store ptr %0, ptr %5, align 8, !tbaa !57
  store i32 %1, ptr %6, align 4, !tbaa !4
  store ptr %2, ptr %7, align 8, !tbaa !11
  store i32 %3, ptr %8, align 4, !tbaa !4
  call void @llvm.lifetime.start.p0(i64 24, ptr %9) #8
  call void @llvm.memcpy.p0.p0.i64(ptr align 8 %9, ptr align 8 @__const.hash_literally.buf, i64 24, i1 false)
  call void @llvm.lifetime.start.p0(i64 4, ptr %10) #8
  %11 = load i32, ptr %6, align 4, !tbaa !4
  %12 = call i64 @strbuf_read(ptr noundef %9, i32 noundef %11, i64 noundef 4096)
  %13 = icmp slt i64 %12, 0
  br i1 %13, label %14, label %15

14:                                               ; preds = %4
  store i32 -1, ptr %10, align 4, !tbaa !4
  br label %24

15:                                               ; preds = %4
  %16 = getelementptr inbounds nuw %struct.strbuf, ptr %9, i32 0, i32 2
  %17 = load ptr, ptr %16, align 8, !tbaa !53
  %18 = getelementptr inbounds nuw %struct.strbuf, ptr %9, i32 0, i32 1
  %19 = load i64, ptr %18, align 8, !tbaa !59
  %20 = load ptr, ptr %7, align 8, !tbaa !11
  %21 = load ptr, ptr %5, align 8, !tbaa !57
  %22 = load i32, ptr %8, align 4, !tbaa !4
  %23 = call i32 @write_object_file_literally(ptr noundef %17, i64 noundef %19, ptr noundef %20, ptr noundef %21, i32 noundef %22)
  store i32 %23, ptr %10, align 4, !tbaa !4
  br label %24

24:                                               ; preds = %15, %14
  %25 = load i32, ptr %6, align 4, !tbaa !4
  %26 = call i32 @close(i32 noundef %25)
  call void @strbuf_release(ptr noundef %9)
  %27 = load i32, ptr %10, align 4, !tbaa !4
  call void @llvm.lifetime.end.p0(i64 4, ptr %10) #8
  call void @llvm.lifetime.end.p0(i64 24, ptr %9) #8
  ret i32 %27
}

; Function Attrs: nounwind uwtable
define internal void @hash_fd(i32 noundef %0, ptr noundef %1, ptr noundef %2, i32 noundef %3, i32 noundef %4) #0 {
  %6 = alloca i32, align 4
  %7 = alloca ptr, align 8
  %8 = alloca ptr, align 8
  %9 = alloca i32, align 4
  %10 = alloca i32, align 4
  %11 = alloca %struct.stat, align 8
  %12 = alloca %struct.object_id, align 4
  store i32 %0, ptr %6, align 4, !tbaa !4
  store ptr %1, ptr %7, align 8, !tbaa !11
  store ptr %2, ptr %8, align 8, !tbaa !11
  store i32 %3, ptr %9, align 4, !tbaa !4
  store i32 %4, ptr %10, align 4, !tbaa !4
  call void @llvm.lifetime.start.p0(i64 144, ptr %11) #8
  call void @llvm.lifetime.start.p0(i64 36, ptr %12) #8
  %13 = load i32, ptr %6, align 4, !tbaa !4
  %14 = call i32 @fstat64(i32 noundef %13, ptr noundef %11) #8
  %15 = icmp slt i32 %14, 0
  br i1 %15, label %36, label %16

16:                                               ; preds = %5
  %17 = load i32, ptr %10, align 4, !tbaa !4
  %18 = icmp ne i32 %17, 0
  br i1 %18, label %19, label %25

19:                                               ; preds = %16
  %20 = load i32, ptr %6, align 4, !tbaa !4
  %21 = load ptr, ptr %7, align 8, !tbaa !11
  %22 = load i32, ptr %9, align 4, !tbaa !4
  %23 = call i32 @hash_literally(ptr noundef %12, i32 noundef %20, ptr noundef %21, i32 noundef %22)
  %24 = icmp ne i32 %23, 0
  br i1 %24, label %36, label %42

25:                                               ; preds = %16
  %26 = load ptr, ptr @the_repository, align 8, !tbaa !13
  %27 = getelementptr inbounds nuw %struct.repository, ptr %26, i32 0, i32 15
  %28 = load ptr, ptr %27, align 8, !tbaa !50
  %29 = load i32, ptr %6, align 4, !tbaa !4
  %30 = load ptr, ptr %7, align 8, !tbaa !11
  %31 = call i32 @type_from_string_gently(ptr noundef %30, i64 noundef -1, i32 noundef 0)
  %32 = load ptr, ptr %8, align 8, !tbaa !11
  %33 = load i32, ptr %9, align 4, !tbaa !4
  %34 = call i32 @index_fd(ptr noundef %28, ptr noundef %12, i32 noundef %29, ptr noundef %11, i32 noundef %31, ptr noundef %32, i32 noundef %33)
  %35 = icmp ne i32 %34, 0
  br i1 %35, label %36, label %42

36:                                               ; preds = %25, %19, %5
  %37 = load i32, ptr %9, align 4, !tbaa !4
  %38 = and i32 %37, 1
  %39 = icmp ne i32 %38, 0
  %40 = select i1 %39, ptr @.str.22, ptr @.str.23
  %41 = load ptr, ptr %8, align 8, !tbaa !11
  call void (ptr, ...) @die(ptr noundef %40, ptr noundef %41) #9
  unreachable

42:                                               ; preds = %25, %19
  %43 = call ptr @oid_to_hex(ptr noundef %12)
  %44 = call i32 (ptr, ...) @printf(ptr noundef @.str.24, ptr noundef %43)
  %45 = load ptr, ptr @stdout, align 8, !tbaa !51
  call void @maybe_flush_or_die(ptr noundef %45, ptr noundef @.str.25)
  call void @llvm.lifetime.end.p0(i64 36, ptr %12) #8
  call void @llvm.lifetime.end.p0(i64 144, ptr %11) #8
  ret void
}