; Function Attrs: nounwind uwtable
define internal fastcc void @hash_fd(i32 noundef %0, ptr noundef %1, ptr noundef %2, i32 noundef %3, i32 noundef %4) unnamed_addr #0 {
  %6 = alloca %struct.strbuf, align 8
  %7 = alloca %struct.stat, align 8
  %8 = alloca %struct.object_id, align 4
  call void @llvm.lifetime.start.p0(i64 144, ptr nonnull %7) #9
  call void @llvm.lifetime.start.p0(i64 36, ptr nonnull %8) #9
  %9 = call i32 @fstat64(i32 noundef %0, ptr noundef nonnull %7) #9
  %10 = icmp slt i32 %9, 0
  br i1 %10, label %29, label %11

11:                                               ; preds = %5
  %.not = icmp eq i32 %4, 0
  br i1 %.not, label %22, label %12

12:                                               ; preds = %11
  call void @llvm.lifetime.start.p0(i64 24, ptr nonnull %6) #9
  call void @llvm.memcpy.p0.p0.i64(ptr noundef nonnull align 8 dereferenceable(24) %6, ptr noundef nonnull align 8 dereferenceable(24) @__const.hash_stdin_paths.unquoted, i64 24, i1 false)
  %13 = call i64 @strbuf_read(ptr noundef nonnull %6, i32 noundef %0, i64 noundef 4096) #9
  %14 = icmp slt i64 %13, 0
  br i1 %14, label %.critedge, label %hash_literally.exit

hash_literally.exit:                              ; preds = %12
  %15 = getelementptr inbounds nuw i8, ptr %6, i64 16
  %16 = load ptr, ptr %15, align 8, !tbaa !46
  %17 = getelementptr inbounds nuw i8, ptr %6, i64 8
  %18 = load i64, ptr %17, align 8, !tbaa !49
  %19 = call i32 @write_object_file_literally(ptr noundef %16, i64 noundef %18, ptr noundef %1, ptr noundef nonnull %8, i32 noundef %3) #9
  %20 = icmp eq i32 %19, 0
  %21 = call i32 @close(i32 noundef %0) #9
  call void @strbuf_release(ptr noundef nonnull %6) #9
  call void @llvm.lifetime.end.p0(i64 24, ptr nonnull %6) #9
  br i1 %20, label %32, label %29

22:                                               ; preds = %11
  %23 = load ptr, ptr @the_repository, align 8, !tbaa !22
  %24 = getelementptr inbounds nuw i8, ptr %23, i64 384
  %25 = load ptr, ptr %24, align 8, !tbaa !51
  %26 = tail call i32 @type_from_string_gently(ptr noundef %1, i64 noundef -1, i32 noundef 0) #9
  %27 = call i32 @index_fd(ptr noundef %25, ptr noundef nonnull %8, i32 noundef %0, ptr noundef nonnull %7, i32 noundef %26, ptr noundef %2, i32 noundef %3) #9
  %.not10 = icmp eq i32 %27, 0
  br i1 %.not10, label %32, label %29

.critedge:                                        ; preds = %12
  %28 = call i32 @close(i32 noundef %0) #9
  call void @strbuf_release(ptr noundef nonnull %6) #9
  call void @llvm.lifetime.end.p0(i64 24, ptr nonnull %6) #9
  br label %29

29:                                               ; preds = %.critedge, %22, %hash_literally.exit, %5
  %30 = and i32 %3, 1
  %.not12 = icmp eq i32 %30, 0
  %31 = select i1 %.not12, ptr @.str.23, ptr @.str.22
  call void (ptr, ...) @die(ptr noundef nonnull %31, ptr noundef %2) #10
  unreachable

32:                                               ; preds = %22, %hash_literally.exit
  %33 = call ptr @oid_to_hex(ptr noundef nonnull %8) #9
  %puts = call i32 @puts(ptr nonnull dereferenceable(1) %33)
  %34 = load ptr, ptr @stdout, align 8, !tbaa !44
  call void @maybe_flush_or_die(ptr noundef %34, ptr noundef nonnull @.str.25) #9
  call void @llvm.lifetime.end.p0(i64 36, ptr nonnull %8) #9
  call void @llvm.lifetime.end.p0(i64 144, ptr nonnull %7) #9
  ret void
}